target datalayout = "e-m:e-p270:32:32-p271:32:32-p272:64:64-i64:64-i128:128-f80:128-n8:16:32:64-S128"
target triple = "x86_64-pc-linux-gnu"

%struct.ossl_passphrase_data_st = type { i32, %union.anon, i8, ptr, i64 }
%union.anon = type { %struct.anon }
%struct.anon = type { ptr, i64 }

@.str = private unnamed_addr constant [31 x i8] c"../openssl/crypto/passphrase.c\00", align 1

; Function Attrs: nounwind uwtable
define void @ossl_pw_clear_passphrase_cache(ptr noundef %0) #0 {
  %2 = alloca ptr, align 8
  store ptr %0, ptr %2, align 8, !tbaa !3
  %3 = load ptr, ptr %2, align 8, !tbaa !3
  %4 = getelementptr inbounds nuw %struct.ossl_passphrase_data_st, ptr %3, i32 0, i32 3
  %5 = load ptr, ptr %4, align 8, !tbaa !14
  %6 = load ptr, ptr %2, align 8, !tbaa !3
  %7 = getelementptr inbounds nuw %struct.ossl_passphrase_data_st, ptr %6, i32 0, i32 4
  %8 = load i64, ptr %7, align 8, !tbaa !15
  call void @CRYPTO_clear_free(ptr noundef %5, i64 noundef %8, ptr noundef @.str, i32 noundef 29)
  %9 = load ptr, ptr %2, align 8, !tbaa !3
  %10 = getelementptr inbounds nuw %struct.ossl_passphrase_data_st, ptr %9, i32 0, i32 3
  store ptr null, ptr %10, align 8, !tbaa !14
  ret void
}

; Function Attrs: nounwind uwtable
define void @ossl_pw_clear_passphrase_data(ptr noundef %0) #0 {
  %2 = alloca ptr, align 8
  store ptr %0, ptr %2, align 8, !tbaa !3
  %3 = load ptr, ptr %2, align 8, !tbaa !3
  %4 = icmp ne ptr %3, null
  br i1 %4, label %5, label %22

5:                                                ; preds = %1
  %6 = load ptr, ptr %2, align 8, !tbaa !3
  %7 = getelementptr inbounds nuw %struct.ossl_passphrase_data_st, ptr %6, i32 0, i32 0
  %8 = load i32, ptr %7, align 8, !tbaa !8
  %9 = icmp eq i32 %8, 1
  br i1 %9, label %10, label %19

10:                                               ; preds = %5
  %11 = load ptr, ptr %2, align 8, !tbaa !3
  %12 = getelementptr inbounds nuw %struct.ossl_passphrase_data_st, ptr %11, i32 0, i32 1
  %13 = getelementptr inbounds nuw %struct.anon, ptr %12, i32 0, i32 0
  %14 = load ptr, ptr %13, align 8, !tbaa !13
  %15 = load ptr, ptr %2, align 8, !tbaa !3
  %16 = getelementptr inbounds nuw %struct.ossl_passphrase_data_st, ptr %15, i32 0, i32 1
  %17 = getelementptr inbounds nuw %struct.anon, ptr %16, i32 0, i32 1
  %18 = load i64, ptr %17, align 8, !tbaa !13
  call void @CRYPTO_clear_free(ptr noundef %14, i64 noundef %18, ptr noundef @.str, i32 noundef 21)
  br label %19

19:                                               ; preds = %10, %5
  %20 = load ptr, ptr %2, align 8, !tbaa !3
  call void @ossl_pw_clear_passphrase_cache(ptr noundef %20)
  %21 = load ptr, ptr %2, align 8, !tbaa !3
  call void @llvm.memset.p0.i64(ptr align 8 %21, i8 0, i64 48, i1 false)
  br label %22

22:                                               ; preds = %19, %1
  ret void
}