; Function Attrs: nounwind uwtable
define void @ossl_pw_clear_passphrase_data(ptr noundef captures(address_is_null) %0) local_unnamed_addr #0 {
  %.not = icmp eq ptr %0, null
  br i1 %.not, label %15, label %2

2:                                                ; preds = %1
  %3 = load i32, ptr %0, align 8, !tbaa !3
  %4 = icmp eq i32 %3, 1
  br i1 %4, label %5, label %10

5:                                                ; preds = %2
  %6 = getelementptr inbounds nuw i8, ptr %0, i64 8
  %7 = load ptr, ptr %6, align 8, !tbaa !11
  %8 = getelementptr inbounds nuw i8, ptr %0, i64 16
  %9 = load i64, ptr %8, align 8, !tbaa !11
  tail call void @CRYPTO_clear_free(ptr noundef %7, i64 noundef %9, ptr noundef nonnull @.str, i32 noundef 21) #7
  br label %10

10:                                               ; preds = %5, %2
  %11 = getelementptr inbounds nuw i8, ptr %0, i64 32
  %12 = load ptr, ptr %11, align 8, !tbaa !12
  %13 = getelementptr inbounds nuw i8, ptr %0, i64 40
  %14 = load i64, ptr %13, align 8, !tbaa !13
  tail call void @CRYPTO_clear_free(ptr noundef %12, i64 noundef %14, ptr noundef nonnull @.str, i32 noundef 29) #7
  tail call void @llvm.memset.p0.i64(ptr noundef nonnull align 8 dereferenceable(48) %0, i8 0, i64 48, i1 false)
  br label %15

15:                                               ; preds = %10, %1
  ret void
}